(lp0
Vnew_host2
p1
a(lp2
S'ORA11G'
p3
ag3
aaVORA11G_Table.ORA11G_Table
p4
a(lp5
(dp6
S'field_term'
p7
(lp8
S'-t'
p9
aS'--field_term'
p10
aS'"|"'
p11
aS'Field terminator.'
p12
asS'num_of_shards'
p13
(lp14
S'-r'
p15
aS'--num_of_shards'
p16
aI1
aS'Number of shards.'
p17
asS'pool_size'
p18
(lp19
S'-o'
p20
aS'--pool_size'
p21
aI1
aS'Pool size.'
p22
asS'copy_vector'
p23
(lp24
S'-w'
p25
aS'--copy_vector'
p26
aS'ora11g2ora11g'
p27
aS'Data copy direction.'
p28
asS'keep_data_file'
p29
(lp30
S'-K'
p31
aS'--keep_data_file'
p32
aI1
aS'Keep data dump.'
p33
asS'default_spool_dir'
p34
(lp35
S'-F'
p36
aS'--default_spool_dir'
p37
aS'C:\\tmp\\TEST_default_spool'
p38
aS'Default data dump dir (default_spool_dir/job_name/timestamp).'
p39
asS'time_stamp'
p40
(lp41
S'-Y'
p42
aS'--time_stamp'
p43
aV20150422_231951_764000
p44
aS'Timestamp (log_dir/job_name/timestamp).'
p45
asS'host_map'
p46
(lp47
S'-5'
p48
aS'--host_map'
p49
aVC:\u005cUsers\u005calex_buz\u005csessions\u005cMy_Sessions\u005cnew_host\u005chost_map_v2.py
p50
aS'Host-to-shard map.'
p51
asS'job_name'
p52
(lp53
S'-B'
p54
aS'--job_name'
p55
aS'qc_job'
p56
aS'Job name (log_dir/job_name).'
p57
asS'loader_profile'
p58
(lp59
S'-C'
p60
aS'--loader_profile'
p61
aVC:\u005cUsers\u005calex_buz\u005csessions\u005cMy_Sessions\u005cnew_host\u005cloader\u005csqlloader.yaml
p62
aS'SQL*Loader profile (user defined).'
p63
asS'log_dir'
p64
(lp65
S'-M'
p66
aS'--log_dir'
p67
aS'C:\\Temp\\qc_log'
p68
aS'Log destination.'
p69
asa(dp70
S'from_db_name'
p71
(lp72
S'-b'
p73
aS'--from_db_name'
p74
aS'orcl'
p75
aS'Oracle 11G source database.'
p76
asS'nls_date_format'
p77
(lp78
S'-e'
p79
aS'--nls_date_format'
p80
aS'"YYYY-MM-DD HH24.MI.SS"'
p81
aS'nls_date_format for source.'
p82
asS'from_user'
p83
(lp84
S'-j'
p85
aS'--from_user'
p86
aS'SCOTT'
p87
aS'Oracle 11G source user.'
p88
asS'nls_timestamp_format'
p89
(lp90
S'-m'
p91
aS'--nls_timestamp_format'
p92
aS'"YYYY-MM-DD HH24.MI.SS.FF2"'
p93
aS'nls_timestamp_format for source.'
p94
asS'source_client_home'
p95
(lp96
S'-z'
p97
aS'--source_client_home'
p98
aS'"C:\\app\\alex_buz\\product\\11.2.0\\dbhome_2\\BIN"'
p99
aS'Path to Oracle 11G client home.'
p100
asS'nls_timestamp_tz_format'
p101
(lp102
S'-O'
p103
aS'--nls_timestamp_tz_format'
p104
aS'"YYYY-MM-DD HH:MI:SS.FF2 TZH:TZM"'
p105
aS'nls_timestamp_tz_format for source.'
p106
asS'from_table'
p107
(lp108
S'-c'
p109
aS'--from_table'
p110
aS'SCOTT.Timestamp_test_from'
p111
aS'From table.'
p112
asS'from_passwd'
p113
(lp114
S'-x'
p115
aS'--from_passwd'
p116
aS'dGlnZXI='
p117
aS'Oracle 11G source user password.'
p118
asa(dp119
S'to_db_name'
p120
(lp121
S'-d'
p122
aS'--to_db_name'
p123
ag75
aS'Oracle 11G database.'
p124
asS'target_client_home'
p125
(lp126
S'-Z'
p127
aS'--target_client_home'
p128
ag99
aS'Path to Oracle 11G client home bin dir.'
p129
asS'to_passwd'
p130
(lp131
S'-p'
p132
aS'--to_passwd'
p133
aS'dGlnZXI='
p134
aS'Oracle 11G user password.'
p135
asg89
(lp136
g91
ag92
ag93
aS'nls_timestamp_format for target.'
p137
asS'to_user'
p138
(lp139
S'-u'
p140
aS'--to_user'
p141
ag87
aS'Target Oracle 11G db user.'
p142
asg77
(lp143
g79
ag80
ag81
aS'nls_date_format for target.'
p144
asg101
(lp145
g103
ag104
ag105
aS'nls_timestamp_tz_format for target.'
p146
asS'to_table'
p147
(lp148
S'-a'
p149
aS'--to_table'
p150
aS'SCOTT.Timestamp_test_to'
p151
aS'To Oracle table.'
p152
asaa.